target datalayout = "e-m:e-p270:32:32-p271:32:32-p272:64:64-i64:64-i128:128-f80:128-n8:16:32:64-S128"
target triple = "x86_64-pc-linux-gnu"

; Function Attrs: nounwind uwtable
define double @integrate(double noundef %0, double noundef %1, ptr noundef %2, i64 noundef %3) #0 {
  %5 = alloca double, align 8
  %6 = alloca double, align 8
  %7 = alloca ptr, align 8
  %8 = alloca i64, align 8
  %9 = alloca double, align 8
  %10 = alloca double, align 8
  %11 = alloca double, align 8
  store double %0, ptr %5, align 8, !tbaa !9
  store double %1, ptr %6, align 8, !tbaa !9
  store ptr %2, ptr %7, align 8, !tbaa !7
  store i64 %3, ptr %8, align 8, !tbaa !35
  call void @llvm.lifetime.start.p0(i64 8, ptr %9) #12
  call void @llvm.lifetime.start.p0(i64 8, ptr %10) #12
  store double 0.000000e+00, ptr %10, align 8, !tbaa !9
  call void @llvm.lifetime.start.p0(i64 8, ptr %11) #12
  %12 = load double, ptr %6, align 8, !tbaa !9
  %13 = load double, ptr %5, align 8, !tbaa !9
  %14 = fsub double %12, %13
  %15 = load i64, ptr %8, align 8, !tbaa !35
  %16 = sitofp i64 %15 to double
  %17 = fdiv double %14, %16
  store double %17, ptr %11, align 8, !tbaa !9
  %18 = load double, ptr %5, align 8, !tbaa !9
  %19 = load double, ptr %11, align 8, !tbaa !9
  %20 = call double @llvm.fmuladd.f64(double 5.000000e-01, double %19, double %18)
  store double %20, ptr %9, align 8, !tbaa !9
  br label %21

21:                                               ; preds = %36, %4
  %22 = load double, ptr %6, align 8, !tbaa !9
  %23 = load double, ptr %9, align 8, !tbaa !9
  %24 = fsub double %22, %23
  %25 = load double, ptr %9, align 8, !tbaa !9
  %26 = load double, ptr %5, align 8, !tbaa !9
  %27 = fsub double %25, %26
  %28 = fmul double %24, %27
  %29 = fcmp ogt double %28, 0.000000e+00
  br i1 %29, label %30, label %40

30:                                               ; preds = %21
  %31 = load ptr, ptr %7, align 8, !tbaa !7
  %32 = load double, ptr %9, align 8, !tbaa !9
  %33 = call double %31(double noundef %32)
  %34 = load double, ptr %10, align 8, !tbaa !9
  %35 = fadd double %34, %33
  store double %35, ptr %10, align 8, !tbaa !9
  br label %36

36:                                               ; preds = %30
  %37 = load double, ptr %11, align 8, !tbaa !9
  %38 = load double, ptr %9, align 8, !tbaa !9
  %39 = fadd double %38, %37
  store double %39, ptr %9, align 8, !tbaa !9
  br label %21, !llvm.loop !69

40:                                               ; preds = %21
  %41 = load double, ptr %10, align 8, !tbaa !9
  %42 = load i64, ptr %8, align 8, !tbaa !35
  %43 = sitofp i64 %42 to double
  %44 = fdiv double %41, %43
  call void @llvm.lifetime.end.p0(i64 8, ptr %11) #12
  call void @llvm.lifetime.end.p0(i64 8, ptr %10) #12
  call void @llvm.lifetime.end.p0(i64 8, ptr %9) #12
  ret double %44
}