; Function Attrs: nounwind uwtable
define double @integrate(double noundef %0, double noundef %1, ptr noundef readonly captures(none) %2, i64 noundef %3) local_unnamed_addr #0 {
  %5 = fsub double %1, %0
  %6 = sitofp i64 %3 to double
  %7 = fdiv double %5, %6
  %8 = tail call double @llvm.fmuladd.f64(double %7, double 5.000000e-01, double %0)
  %9 = fsub double %1, %8
  %10 = fsub double %8, %0
  %11 = fmul double %9, %10
  %12 = fcmp ogt double %11, 0.000000e+00
  br i1 %12, label %.lr.ph, label %._crit_edge

.lr.ph:                                           ; preds = %4, %.lr.ph
  %.017 = phi double [ %15, %.lr.ph ], [ %8, %4 ]
  %.01516 = phi double [ %14, %.lr.ph ], [ 0.000000e+00, %4 ]
  %13 = tail call double %2(double noundef %.017) #34
  %14 = fadd double %.01516, %13
  %15 = fadd double %7, %.017
  %16 = fsub double %1, %15
  %17 = fsub double %15, %0
  %18 = fmul double %16, %17
  %19 = fcmp ogt double %18, 0.000000e+00
  br i1 %19, label %.lr.ph, label %._crit_edge, !llvm.loop !59

._crit_edge:                                      ; preds = %.lr.ph, %4
  %.015.lcssa = phi double [ 0.000000e+00, %4 ], [ %14, %.lr.ph ]
  %20 = fdiv double %.015.lcssa, %6
  ret double %20
}